target datalayout = "e-m:e-p270:32:32-p271:32:32-p272:64:64-i64:64-i128:128-f80:128-n8:16:32:64-S128"
target triple = "x86_64-pc-linux-gnu"

%struct.SDL_Rect = type { i32, i32, i32, i32 }
%struct.SDL_VideoData = type { ptr, ptr, i32, ptr, i64, i32, ptr, i32, i64, i64, %struct.X11_ClipboardData, %struct.X11_ClipboardData, ptr, i64, %struct.X11_SettingsData, i8, %struct.anon.1, [256 x i32], i8, i8, i8, i64, i8, %struct.SDL_Point, i32, ptr, i32, i8, i32, %struct.anon.2, i8, i64, ptr, ptr, i8, i8, i8 }
%struct.X11_ClipboardData = type { ptr, ptr, ptr, i64, i32 }
%struct.X11_SettingsData = type { ptr }
%struct.anon.1 = type { i64, i64, i64, i64, i64, i64, i64, i64, i64, i64, i64, i64, i64, i64, i64, i64, i64, i64, i64, i64, i64, i64, i64, i64, i64, i64, i64, i64, i64, i64, i64, i64, i64, i64, i64, i64, i64, i64, i64, i64, i64, i64, i64, i64, i64, i64, i64, i64, i64, i64, i64, i64, i64 }
%struct.SDL_Point = type { i32, i32 }
%struct.anon.2 = type { ptr, i32, i32, i32, i16, i32, i32 }
%struct.SDL_Window = type { i32, ptr, ptr, i32, i32, i32, i32, i32, i32, i32, i32, float, float, i32, i32, i64, i64, float, i8, i8, i32, i32, %struct.SDL_Rect, %struct.SDL_Rect, %struct.SDL_Rect, i8, i8, i8, %struct.SDL_DisplayMode, %struct.SDL_DisplayMode, %struct.SDL_HDROutputProperties, float, ptr, i8, i8, i8, i8, i8, i8, i8, i8, i8, i32, i32, i32, i32, %struct.SDL_Rect, i32, i8, %struct.SDL_Rect, i32, %struct.SDL_Rect, ptr, ptr, i32, float, i32, i32, ptr, ptr, ptr, ptr, ptr, ptr, ptr, ptr, ptr }
%struct.SDL_DisplayMode = type { i32, i32, i32, i32, float, float, i32, i32, ptr }
%struct.SDL_HDROutputProperties = type { float, float }
%struct.XWMHints = type { i64, i32, i32, i64, i64, i32, i32, i64, i64 }
%struct.SDL_WindowData = type { ptr, i64, ptr, i64, i8, %struct.XShmSegmentInfo, ptr, ptr, ptr, i8, i32, i32, i32, i32, i8, i8, i8, i64, i32, i64, i8, %struct.SDL_Point, %struct.XConfigureEvent, %struct.XConfigureEvent, ptr, i64, i64, i64, i8, i64, ptr, i8, [4 x i64], %struct.SDL_Rect, i64, %struct._XSyncValue, i8, %struct.SDL_Rect, %struct.SDL_DisplayMode, i32, i32, i8, i8, i8, i8, i8, i8, i8, i8, i32, %struct.XPoint, ptr, ptr, i32, i32, i8 }
%struct.XShmSegmentInfo = type { i64, i32, ptr, i32 }
%struct.XConfigureEvent = type { i32, i64, i32, ptr, i64, i64, i32, i32, i32, i32, i32, i64, i32 }
%struct._XSyncValue = type { i32, i32 }
%struct.XPoint = type { i16, i16 }

@X11_XFree = external global ptr, align 8
@X11_XGetWMHints = external global ptr, align 8
@.str.35 = private unnamed_addr constant [22 x i8] c"Couldn't get WM hints\00", align 1
@X11_XSetWMHints = external global ptr, align 8

; Function Attrs: nounwind uwtable
define hidden zeroext i1 @X11_SetWindowFocusable(ptr noundef %0, ptr noundef %1, i1 noundef zeroext %2) #0 {
  %4 = alloca i1, align 1
  %5 = alloca ptr, align 8
  %6 = alloca ptr, align 8
  %7 = alloca i8, align 1
  %8 = alloca ptr, align 8
  %9 = alloca ptr, align 8
  %10 = alloca ptr, align 8
  %11 = alloca i32, align 4
  %12 = alloca ptr, align 8
  %13 = alloca i8, align 1
  store ptr %0, ptr %5, align 8
  store ptr %1, ptr %6, align 8
  %14 = zext i1 %2 to i8
  store i8 %14, ptr %7, align 1
  %15 = load ptr, ptr %6, align 8
  %16 = getelementptr inbounds nuw %struct.SDL_Window, ptr %15, i32 0, i32 15
  %17 = load i64, ptr %16, align 8
  %18 = and i64 %17, 786432
  %19 = icmp ne i64 %18, 0
  br i1 %19, label %61, label %20

20:                                               ; preds = %3
  call void @llvm.lifetime.start.p0(i64 8, ptr %8) #7
  %21 = load ptr, ptr %6, align 8
  %22 = getelementptr inbounds nuw %struct.SDL_Window, ptr %21, i32 0, i32 59
  %23 = load ptr, ptr %22, align 8
  store ptr %23, ptr %8, align 8
  call void @llvm.lifetime.start.p0(i64 8, ptr %9) #7
  %24 = load ptr, ptr %8, align 8
  %25 = getelementptr inbounds nuw %struct.SDL_WindowData, ptr %24, i32 0, i32 24
  %26 = load ptr, ptr %25, align 8
  %27 = getelementptr inbounds nuw %struct.SDL_VideoData, ptr %26, i32 0, i32 0
  %28 = load ptr, ptr %27, align 8
  store ptr %28, ptr %9, align 8
  call void @llvm.lifetime.start.p0(i64 8, ptr %10) #7
  %29 = load ptr, ptr @X11_XGetWMHints, align 8
  %30 = load ptr, ptr %9, align 8
  %31 = load ptr, ptr %8, align 8
  %32 = getelementptr inbounds nuw %struct.SDL_WindowData, ptr %31, i32 0, i32 1
  %33 = load i64, ptr %32, align 8
  %34 = call ptr %29(ptr noundef %30, i64 noundef %33)
  store ptr %34, ptr %10, align 8
  %35 = load ptr, ptr %10, align 8
  %36 = icmp ne ptr %35, null
  br i1 %36, label %39, label %37

37:                                               ; preds = %20
  %38 = call zeroext i1 (ptr, ...) @SDL_SetError_REAL(ptr noundef @.str.35)
  store i1 %38, ptr %4, align 1
  store i32 1, ptr %11, align 4
  br label %58

39:                                               ; preds = %20
  %40 = load i8, ptr %7, align 1, !range !5, !noundef !6
  %41 = trunc i8 %40 to i1
  %42 = select i1 %41, i32 1, i32 0
  %43 = load ptr, ptr %10, align 8
  %44 = getelementptr inbounds nuw %struct.XWMHints, ptr %43, i32 0, i32 1
  store i32 %42, ptr %44, align 8
  %45 = load ptr, ptr %10, align 8
  %46 = getelementptr inbounds nuw %struct.XWMHints, ptr %45, i32 0, i32 0
  %47 = load i64, ptr %46, align 8
  %48 = or i64 %47, 1
  store i64 %48, ptr %46, align 8
  %49 = load ptr, ptr @X11_XSetWMHints, align 8
  %50 = load ptr, ptr %9, align 8
  %51 = load ptr, ptr %8, align 8
  %52 = getelementptr inbounds nuw %struct.SDL_WindowData, ptr %51, i32 0, i32 1
  %53 = load i64, ptr %52, align 8
  %54 = load ptr, ptr %10, align 8
  call void %49(ptr noundef %50, i64 noundef %53, ptr noundef %54)
  %55 = load ptr, ptr @X11_XFree, align 8
  %56 = load ptr, ptr %10, align 8
  %57 = call i32 %55(ptr noundef %56)
  store i32 0, ptr %11, align 4
  br label %58

58:                                               ; preds = %39, %37
  call void @llvm.lifetime.end.p0(i64 8, ptr %10) #7
  call void @llvm.lifetime.end.p0(i64 8, ptr %9) #7
  call void @llvm.lifetime.end.p0(i64 8, ptr %8) #7
  %59 = load i32, ptr %11, align 4
  switch i32 %59, label %105 [
    i32 0, label %60
    i32 1, label %103
  ]

60:                                               ; preds = %58
  br label %102

61:                                               ; preds = %3
  %62 = load ptr, ptr %6, align 8
  %63 = getelementptr inbounds nuw %struct.SDL_Window, ptr %62, i32 0, i32 15
  %64 = load i64, ptr %63, align 8
  %65 = and i64 %64, 524288
  %66 = icmp ne i64 %65, 0
  br i1 %66, label %67, label %101

67:                                               ; preds = %61
  %68 = load ptr, ptr %6, align 8
  %69 = getelementptr inbounds nuw %struct.SDL_Window, ptr %68, i32 0, i32 15
  %70 = load i64, ptr %69, align 8
  %71 = and i64 %70, 8
  %72 = icmp ne i64 %71, 0
  br i1 %72, label %100, label %73

73:                                               ; preds = %67
  %74 = load i8, ptr %7, align 1, !range !5, !noundef !6
  %75 = trunc i8 %74 to i1
  br i1 %75, label %89, label %76

76:                                               ; preds = %73
  %77 = load ptr, ptr %6, align 8
  %78 = getelementptr inbounds nuw %struct.SDL_Window, ptr %77, i32 0, i32 15
  %79 = load i64, ptr %78, align 8
  %80 = and i64 %79, 512
  %81 = icmp ne i64 %80, 0
  br i1 %81, label %82, label %89

82:                                               ; preds = %76
  call void @llvm.lifetime.start.p0(i64 8, ptr %12) #7
  call void @llvm.lifetime.start.p0(i64 1, ptr %13) #7
  %83 = load ptr, ptr %6, align 8
  %84 = call zeroext i1 @SDL_ShouldRelinquishPopupFocus(ptr noundef %83, ptr noundef %12)
  %85 = zext i1 %84 to i8
  store i8 %85, ptr %13, align 1
  %86 = load ptr, ptr %12, align 8
  %87 = load i8, ptr %13, align 1, !range !5, !noundef !6
  %88 = trunc i8 %87 to i1
  call void @X11_SetKeyboardFocus(ptr noundef %86, i1 noundef zeroext %88)
  call void @llvm.lifetime.end.p0(i64 1, ptr %13) #7
  call void @llvm.lifetime.end.p0(i64 8, ptr %12) #7
  br label %99

89:                                               ; preds = %76, %73
  %90 = load i8, ptr %7, align 1, !range !5, !noundef !6
  %91 = trunc i8 %90 to i1
  br i1 %91, label %92, label %98

92:                                               ; preds = %89
  %93 = load ptr, ptr %6, align 8
  %94 = call zeroext i1 @SDL_ShouldFocusPopup(ptr noundef %93)
  br i1 %94, label %95, label %97

95:                                               ; preds = %92
  %96 = load ptr, ptr %6, align 8
  call void @X11_SetKeyboardFocus(ptr noundef %96, i1 noundef zeroext true)
  br label %97

97:                                               ; preds = %95, %92
  br label %98

98:                                               ; preds = %97, %89
  br label %99

99:                                               ; preds = %98, %82
  br label %100

100:                                              ; preds = %99, %67
  store i1 true, ptr %4, align 1
  br label %103

101:                                              ; preds = %61
  br label %102

102:                                              ; preds = %101, %60
  store i1 true, ptr %4, align 1
  br label %103

103:                                              ; preds = %102, %100, %58
  %104 = load i1, ptr %4, align 1
  ret i1 %104

105:                                              ; preds = %58
  unreachable
}