; Function Attrs: nounwind uwtable
define hidden zeroext i1 @X11_SetWindowFocusable(ptr noundef readnone captures(none) %0, ptr noundef %1, i1 noundef zeroext %2) local_unnamed_addr #0 {
  %4 = alloca ptr, align 8
  %5 = getelementptr inbounds nuw i8, ptr %1, i64 72
  %6 = load i64, ptr %5, align 8
  %7 = and i64 %6, 786432
  %.not = icmp eq i64 %7, 0
  br i1 %.not, label %8, label %28

8:                                                ; preds = %3
  %9 = getelementptr inbounds nuw i8, ptr %1, i64 392
  %10 = load ptr, ptr %9, align 8
  %11 = getelementptr inbounds nuw i8, ptr %10, i64 336
  %12 = load ptr, ptr %11, align 8
  %13 = load ptr, ptr %12, align 8
  %14 = load ptr, ptr @X11_XGetWMHints, align 8
  %15 = getelementptr inbounds nuw i8, ptr %10, i64 8
  %16 = load i64, ptr %15, align 8
  %17 = tail call ptr %14(ptr noundef %13, i64 noundef %16) #12
  %.not25 = icmp eq ptr %17, null
  br i1 %.not25, label %26, label %.thread

.thread:                                          ; preds = %8
  %18 = zext i1 %2 to i32
  %19 = getelementptr inbounds nuw i8, ptr %17, i64 8
  store i32 %18, ptr %19, align 8
  %20 = load i64, ptr %17, align 8
  %21 = or i64 %20, 1
  store i64 %21, ptr %17, align 8
  %22 = load ptr, ptr @X11_XSetWMHints, align 8
  %23 = load i64, ptr %15, align 8
  tail call void %22(ptr noundef %13, i64 noundef %23, ptr noundef nonnull %17) #12
  %24 = load ptr, ptr @X11_XFree, align 8
  %25 = tail call i32 %24(ptr noundef nonnull %17) #12
  br label %58

26:                                               ; preds = %8
  %27 = tail call zeroext i1 (ptr, ...) @SDL_SetError_REAL(ptr noundef nonnull @.str.35) #12
  br label %58

28:                                               ; preds = %3
  %29 = and i64 %6, 524296
  %or.cond31 = icmp eq i64 %29, 524288
  br i1 %or.cond31, label %30, label %58

30:                                               ; preds = %28
  %31 = and i64 %6, 512
  %.not28 = icmp eq i64 %31, 0
  %or.cond = or i1 %2, %.not28
  br i1 %or.cond, label %54, label %32

32:                                               ; preds = %30
  call void @llvm.lifetime.start.p0(i64 8, ptr nonnull %4) #12
  %33 = call zeroext i1 @SDL_ShouldRelinquishPopupFocus(ptr noundef nonnull %1, ptr noundef nonnull %4) #12
  %34 = load ptr, ptr %4, align 8
  %35 = getelementptr inbounds nuw i8, ptr %34, i64 72
  %36 = load i64, ptr %35, align 8
  %37 = and i64 %36, 786432
  %.not8.i = icmp eq i64 %37, 0
  br i1 %.not8.i, label %._crit_edge.i, label %.lr.ph.i

.lr.ph.i:                                         ; preds = %32, %.lr.ph.i
  %.09.i = phi ptr [ %39, %.lr.ph.i ], [ %34, %32 ]
  %38 = getelementptr inbounds nuw i8, ptr %.09.i, i64 424
  %39 = load ptr, ptr %38, align 8
  %40 = getelementptr inbounds nuw i8, ptr %39, i64 72
  %41 = load i64, ptr %40, align 8
  %42 = and i64 %41, 786432
  %.not.i = icmp eq i64 %42, 0
  br i1 %.not.i, label %._crit_edge.i, label %.lr.ph.i, !llvm.loop !17

._crit_edge.i:                                    ; preds = %.lr.ph.i, %32
  %.0.lcssa.i = phi ptr [ %34, %32 ], [ %39, %.lr.ph.i ]
  %43 = getelementptr inbounds nuw i8, ptr %.0.lcssa.i, i64 400
  store ptr %34, ptr %43, align 8
  br i1 %33, label %44, label %X11_SetKeyboardFocus.exit

44:                                               ; preds = %._crit_edge.i
  %45 = getelementptr inbounds nuw i8, ptr %34, i64 265
  %46 = load i8, ptr %45, align 1, !range !5, !noundef !6
  %47 = trunc nuw i8 %46 to i1
  br i1 %47, label %X11_SetKeyboardFocus.exit, label %48

48:                                               ; preds = %44
  %49 = getelementptr inbounds nuw i8, ptr %34, i64 271
  %50 = load i8, ptr %49, align 1, !range !5, !noundef !6
  %51 = trunc nuw i8 %50 to i1
  br i1 %51, label %X11_SetKeyboardFocus.exit, label %52

52:                                               ; preds = %48
  %53 = call zeroext i1 @SDL_SetKeyboardFocus(ptr noundef nonnull %34) #12
  br label %X11_SetKeyboardFocus.exit

X11_SetKeyboardFocus.exit:                        ; preds = %._crit_edge.i, %44, %48, %52
  call void @llvm.lifetime.end.p0(i64 8, ptr nonnull %4) #12
  br label %58

54:                                               ; preds = %30
  br i1 %2, label %55, label %58

55:                                               ; preds = %54
  %56 = tail call zeroext i1 @SDL_ShouldFocusPopup(ptr noundef nonnull %1) #12
  br i1 %56, label %57, label %58

57:                                               ; preds = %55
  tail call fastcc void @X11_SetKeyboardFocus(ptr noundef nonnull %1, i1 noundef zeroext true)
  br label %58

58:                                               ; preds = %28, %.thread, %26, %54, %57, %55, %X11_SetKeyboardFocus.exit
  %.1 = phi i1 [ %27, %26 ], [ true, %X11_SetKeyboardFocus.exit ], [ true, %55 ], [ true, %57 ], [ true, %54 ], [ true, %.thread ], [ true, %28 ]
  ret i1 %.1
}